; Function Attrs: nofree norecurse nosync nounwind memory(read, inaccessiblemem: none) uwtable
define i32 @cli_bcapi_pdf_lookupobj(ptr nocapture noundef readonly %0, i32 noundef %1) local_unnamed_addr #25 {
  %3 = getelementptr inbounds i8, ptr %0, i64 1056
  %4 = load i32, ptr %3, align 8
  %.not = icmp eq i32 %4, 0
  br i1 %.not, label %.loopexit, label %.preheader

.preheader:                                       ; preds = %2
  %5 = getelementptr inbounds i8, ptr %0, i64 1024
  %6 = load i32, ptr %5, align 8
  %.not12 = icmp eq i32 %6, 0
  br i1 %.not12, label %.loopexit, label %.lr.ph

.lr.ph:                                           ; preds = %.preheader
  %7 = getelementptr inbounds i8, ptr %0, i64 1032
  %8 = load ptr, ptr %7, align 8
  br label %9

9:                                                ; preds = %.lr.ph, %16
  %.09 = phi i32 [ 0, %.lr.ph ], [ %17, %16 ]
  %10 = zext i32 %.09 to i64
  %11 = getelementptr inbounds ptr, ptr %8, i64 %10
  %12 = load ptr, ptr %11, align 8
  %13 = getelementptr inbounds i8, ptr %12, i64 16
  %14 = load i32, ptr %13, align 8
  %15 = icmp eq i32 %14, %1
  br i1 %15, label %.loopexit, label %16

16:                                               ; preds = %9
  %17 = add nuw i32 %.09, 1
  %exitcond.not = icmp eq i32 %17, %6
  br i1 %exitcond.not, label %.loopexit, label %9

.loopexit:                                        ; preds = %9, %16, %.preheader, %2
  %.08 = phi i32 [ -1, %2 ], [ -1, %.preheader ], [ %.09, %9 ], [ -1, %16 ]
  ret i32 %.08
}